Certificate:
    Data:
        Version: 3 (0x2)
        Serial Number: 10 (0xa)
        Signature Algorithm: sha1WithRSAEncryption
        Issuer: C=cn, ST=cx, L=cx, O=cx, OU=cx, CN=cx
        Validity
            Not Before: Aug 26 00:57:34 2013 GMT
            Not After : Aug 24 00:57:34 2023 GMT
        Subject: C=cn, ST=cx, O=cx, OU=cx, CN=cx
        Subject Public Key Info:
            Public Key Algorithm: rsaEncryption
            RSA Public Key: (1024 bit)
                Modulus (1024 bit):
                    00:b3:e0:f9:92:ac:02:4e:39:f9:d0:ab:de:aa:f4:
                    37:5f:08:e1:a7:63:ae:bc:88:52:75:5f:dd:b2:fa:
                    34:ac:1f:46:50:4f:28:b8:ae:4a:c5:0d:53:a5:7c:
                    a1:fe:c7:33:6a:88:fc:ea:c7:31:ce:9f:06:24:4a:
                    e5:b7:5a:a5:74:ad:90:08:5c:c5:56:80:04:30:c0:
                    b1:de:7c:ec:2b:5a:ab:11:fc:97:40:d2:b8:b9:c1:
                    fe:66:76:e5:01:6b:d4:50:11:89:e7:55:af:dc:ca:
                    cb:b9:13:d7:1e:5f:dd:bd:49:7d:95:c8:ca:1e:83:
                    d3:de:27:7c:90:60:8f:84:2b
                Exponent: 65537 (0x10001)
        X509v3 extensions:
            X509v3 Basic Constraints: 
                CA:FALSE
            Netscape Comment: 
                OpenSSL Generated Certificate
            X509v3 Subject Key Identifier: 
                2E:C8:25:67:96:9D:FD:B6:75:31:65:8B:66:FE:BA:B4:75:71:A7:FC
            X509v3 Authority Key Identifier: 
                keyid:0E:7F:BB:12:A2:05:BF:AD:B6:44:66:94:F2:31:14:CC:DF:A5:79:B7

    Signature Algorithm: sha1WithRSAEncryption
        79:87:88:57:91:1a:6e:84:82:aa:57:44:3a:87:db:6e:9d:e4:
        00:41:dc:8f:ef:6d:09:12:71:dc:19:bc:e7:e8:33:53:3b:b9:
        b6:7e:27:10:06:e5:89:98:e3:e4:67:f7:d4:04:d6:79:ca:0f:
        73:6c:9c:27:7a:00:b0:6f:e5:25:60:a4:4c:64:ba:6c:71:00:
        cb:22:2b:f4:e7:6d:45:75:cd:f3:28:68:20:3d:96:d9:5c:ad:
        f7:77:e3:cb:5e:92:3f:a3:49:30:c4:36:b7:00:d1:dd:90:e4:
        9e:af:1f:da:66:8c:78:24:c4:d6:61:39:fe:91:0b:9b:5e:46:
        bd:64
-----BEGIN CERTIFICATE-----
MIICgDCCAemgAwIBAgIBCjANBgkqhkiG9w0BAQUFADBOMQswCQYDVQQGEwJjbjEL
MAkGA1UECBMCY3gxCzAJBgNVBAcTAmN4MQswCQYDVQQKEwJjeDELMAkGA1UECxMC
Y3gxCzAJBgNVBAMTAmN4MB4XDTEzMDgyNjAwNTczNFoXDTIzMDgyNDAwNTczNFow
QTELMAkGA1UEBhMCY24xCzAJBgNVBAgTAmN4MQswCQYDVQQKEwJjeDELMAkGA1UE
CxMCY3gxCzAJBgNVBAMTAmN4MIGfMA0GCSqGSIb3DQEBAQUAA4GNADCBiQKBgQCz
4PmSrAJOOfnQq96q9DdfCOGnY668iFJ1X92y+jSsH0ZQTyi4rkrFDVOlfKH+xzNq
iPzqxzHOnwYkSuW3WqV0rZAIXMVWgAQwwLHefOwrWqsR/JdA0ri5wf5mduUBa9RQ
EYnnVa/cysu5E9ceX929SX2VyMoeg9PeJ3yQYI+EKwIDAQABo3sweTAJBgNVHRME
AjAAMCwGCWCGSAGG+EIBDQQfFh1PcGVuU1NMIEdlbmVyYXRlZCBDZXJ0aWZpY2F0
ZTAdBgNVHQ4EFgQULsglZ5ad/bZ1MWWLZv66tHVxp/wwHwYDVR0jBBgwFoAUDn+7
EqIFv622RGaU8jEUzN+lebcwDQYJKoZIhvcNAQEFBQADgYEAeYeIV5EaboSCqldE
Oofbbp3kAEHcj+9tCRJx3Bm85+gzUzu5tn4nEAbliZjj5Gf31ATWecoPc2ycJ3oA
sG/lJWCkTGS6bHEAyyIr9OdtRXXN8yhoID2W2Vyt93fjy16SP6NJMMQ2twDR3ZDk
nq8f2maMeCTE1mE5/pELm15GvWQ=
-----END CERTIFICATE-----
